target datalayout = "e-m:e-p270:32:32-p271:32:32-p272:64:64-i64:64-i128:128-f80:128-n8:16:32:64-S128"
target triple = "x86_64-pc-linux-gnu"

%struct.ident_t = type { i32, i32, i32, i32, ptr }
%"struct.faiss::HNSWStats" = type { i64, i64, i64, i64, i64 }
%"struct.faiss::(anonymous namespace)::FlatHammingDis" = type <{ %"struct.faiss::DistanceComputer", i32, [4 x i8], ptr, i64, %"struct.faiss::HammingComputer4", [4 x i8] }>
%"struct.faiss::DistanceComputer" = type { ptr }
%"struct.faiss::HammingComputer4" = type { i32 }

@3 = private unnamed_addr constant %struct.ident_t { i32 0, i32 2, i32 0, i32 22, ptr @0 }, align 8
@.gomp_critical_user_.var = common global [8 x i32] zeroinitializer, align 8
@_ZN5faiss10hnsw_statsE = external global %"struct.faiss::HNSWStats", align 8

; Function Attrs: mustprogress nounwind uwtable
define linkonce_odr void @_ZN5faiss16DistanceComputerD2Ev(ptr noundef nonnull align 8 dereferenceable(8) %0) unnamed_addr #0 comdat align 2 {
  %2 = alloca ptr, align 8
  store ptr %0, ptr %2, align 8
  ret void
}

; Function Attrs: mustprogress nounwind uwtable
define internal void @_ZN5faiss12_GLOBAL__N_114FlatHammingDisINS_16HammingComputer4EED2Ev(ptr noundef nonnull align 8 dereferenceable(36) %0) unnamed_addr #0 align 2 {
  %2 = alloca ptr, align 8
  %3 = call i32 @__kmpc_global_thread_num(ptr @3)
  store ptr %0, ptr %2, align 8
  %4 = load ptr, ptr %2, align 8
  store ptr getelementptr inbounds ({ [8 x ptr] }, ptr @_ZTVN5faiss12_GLOBAL__N_114FlatHammingDisINS_16HammingComputer4EEE, i32 0, i32 0, i32 2), ptr %4, align 8
  call void @__kmpc_critical(ptr @3, i32 %3, ptr @.gomp_critical_user_.var)
  %5 = getelementptr inbounds %"struct.faiss::(anonymous namespace)::FlatHammingDis", ptr %4, i32 0, i32 4
  %6 = load i64, ptr %5, align 8
  %7 = load i64, ptr getelementptr inbounds (%"struct.faiss::HNSWStats", ptr @_ZN5faiss10hnsw_statsE, i32 0, i32 3), align 8
  %8 = add i64 %7, %6
  store i64 %8, ptr getelementptr inbounds (%"struct.faiss::HNSWStats", ptr @_ZN5faiss10hnsw_statsE, i32 0, i32 3), align 8
  call void @__kmpc_end_critical(ptr @3, i32 %3, ptr @.gomp_critical_user_.var)
  call void @_ZN5faiss16DistanceComputerD2Ev(ptr noundef nonnull align 8 dereferenceable(8) %4) #8
  ret void
}

; Function Attrs: mustprogress nounwind uwtable
define internal void @_ZN5faiss12_GLOBAL__N_114FlatHammingDisINS_16HammingComputer4EED0Ev(ptr noundef nonnull align 8 dereferenceable(36) %0) unnamed_addr #0 align 2 {
  %2 = alloca ptr, align 8
  store ptr %0, ptr %2, align 8
  %3 = load ptr, ptr %2, align 8
  call void @_ZN5faiss12_GLOBAL__N_114FlatHammingDisINS_16HammingComputer4EED2Ev(ptr noundef nonnull align 8 dereferenceable(36) %3) #8
  call void @_ZdlPv(ptr noundef %3) #17
  ret void
}